target datalayout = "e-m:e-p270:32:32-p271:32:32-p272:64:64-i64:64-i128:128-f80:128-n8:16:32:64-S128"
target triple = "x86_64-unknown-linux-gnu"

%"class.std::__cxx11::basic_string" = type { %"struct.std::__cxx11::basic_string<char>::_Alloc_hider", i64, %union.anon }
%"struct.std::__cxx11::basic_string<char>::_Alloc_hider" = type { ptr }
%union.anon = type { i64, [8 x i8] }
%"class.std::allocator" = type { i8 }

; Function Attrs: mustprogress uwtable
define dso_local void @_ZN3net21Curve25519KeyExchange13NewPrivateKeyB5cxx11EPNS_10QuicRandomE(ptr noalias sret(%"class.std::__cxx11::basic_string") align 8 %agg.result, ptr noundef %rand) #2 align 2 personality ptr @__gxx_personality_v0 {
entry:
  %result.ptr = alloca ptr, align 8
  %rand.addr = alloca ptr, align 8
  %private_key = alloca [32 x i8], align 16
  %ref.tmp = alloca %"class.std::allocator", align 1
  %exn.slot = alloca ptr, align 8
  %ehselector.slot = alloca i32, align 4
  store ptr %agg.result, ptr %result.ptr, align 8
  store ptr %rand, ptr %rand.addr, align 8
  %0 = load ptr, ptr %rand.addr, align 8
  %arraydecay = getelementptr inbounds [32 x i8], ptr %private_key, i64 0, i64 0
  %vtable = load ptr, ptr %0, align 8
  %vfn = getelementptr inbounds ptr, ptr %vtable, i64 2
  %1 = load ptr, ptr %vfn, align 8
  call void %1(ptr noundef nonnull align 8 dereferenceable(8) %0, ptr noundef %arraydecay, i64 noundef 32)
  %arrayidx = getelementptr inbounds [32 x i8], ptr %private_key, i64 0, i64 0
  %2 = load i8, ptr %arrayidx, align 16
  %conv = zext i8 %2 to i32
  %and = and i32 %conv, 248
  %conv1 = trunc i32 %and to i8
  store i8 %conv1, ptr %arrayidx, align 16
  %arrayidx2 = getelementptr inbounds [32 x i8], ptr %private_key, i64 0, i64 31
  %3 = load i8, ptr %arrayidx2, align 1
  %conv3 = zext i8 %3 to i32
  %and4 = and i32 %conv3, 127
  %conv5 = trunc i32 %and4 to i8
  store i8 %conv5, ptr %arrayidx2, align 1
  %arrayidx6 = getelementptr inbounds [32 x i8], ptr %private_key, i64 0, i64 31
  %4 = load i8, ptr %arrayidx6, align 1
  %conv7 = zext i8 %4 to i32
  %or = or i32 %conv7, 64
  %conv8 = trunc i32 %or to i8
  store i8 %conv8, ptr %arrayidx6, align 1
  %arraydecay9 = getelementptr inbounds [32 x i8], ptr %private_key, i64 0, i64 0
  call void @_ZNSaIcEC1Ev(ptr noundef nonnull align 1 dereferenceable(1) %ref.tmp) #8
  invoke void @_ZNSt7__cxx1112basic_stringIcSt11char_traitsIcESaIcEEC1EPKcmRKS3_(ptr noundef nonnull align 8 dereferenceable(32) %agg.result, ptr noundef %arraydecay9, i64 noundef 32, ptr noundef nonnull align 1 dereferenceable(1) %ref.tmp)
          to label %invoke.cont unwind label %lpad

invoke.cont:                                      ; preds = %entry
  call void @_ZNSaIcED1Ev(ptr noundef nonnull align 1 dereferenceable(1) %ref.tmp) #8
  ret void

lpad:                                             ; preds = %entry
  %5 = landingpad { ptr, i32 }
          cleanup
  %6 = extractvalue { ptr, i32 } %5, 0
  store ptr %6, ptr %exn.slot, align 8
  %7 = extractvalue { ptr, i32 } %5, 1
  store i32 %7, ptr %ehselector.slot, align 4
  call void @_ZNSaIcED1Ev(ptr noundef nonnull align 1 dereferenceable(1) %ref.tmp) #8
  br label %eh.resume

eh.resume:                                        ; preds = %lpad
  %exn = load ptr, ptr %exn.slot, align 8
  %sel = load i32, ptr %ehselector.slot, align 4
  %lpad.val = insertvalue { ptr, i32 } poison, ptr %exn, 0
  %lpad.val10 = insertvalue { ptr, i32 } %lpad.val, i32 %sel, 1
  resume { ptr, i32 } %lpad.val10
}