; Function Attrs: mustprogress uwtable
define dso_local void @_ZN3net21Curve25519KeyExchange13NewPrivateKeyB5cxx11EPNS_10QuicRandomE(ptr noalias sret(%"class.std::__cxx11::basic_string") align 8 %agg.result, ptr noundef %rand) local_unnamed_addr #4 align 2 personality ptr @__gxx_personality_v0 {
entry:
  %private_key = alloca [32 x i8], align 16
  %ref.tmp = alloca %"class.std::allocator", align 1
  %vtable = load ptr, ptr %rand, align 8
  %vfn = getelementptr inbounds i8, ptr %vtable, i64 16
  %0 = load ptr, ptr %vfn, align 8
  call void %0(ptr noundef nonnull align 8 dereferenceable(8) %rand, ptr noundef nonnull %private_key, i64 noundef 32)
  %1 = load i8, ptr %private_key, align 16
  %2 = and i8 %1, -8
  store i8 %2, ptr %private_key, align 16
  %arrayidx2 = getelementptr inbounds i8, ptr %private_key, i64 31
  %3 = load i8, ptr %arrayidx2, align 1
  %4 = and i8 %3, 63
  %5 = or disjoint i8 %4, 64
  store i8 %5, ptr %arrayidx2, align 1
  call void @_ZNSaIcEC1Ev(ptr noundef nonnull align 1 dereferenceable(1) %ref.tmp) #12
  invoke void @_ZNSt7__cxx1112basic_stringIcSt11char_traitsIcESaIcEEC1EPKcmRKS3_(ptr noundef nonnull align 8 dereferenceable(32) %agg.result, ptr noundef nonnull %private_key, i64 noundef 32, ptr noundef nonnull align 1 dereferenceable(1) %ref.tmp)
          to label %invoke.cont unwind label %lpad

invoke.cont:                                      ; preds = %entry
  call void @_ZNSaIcED1Ev(ptr noundef nonnull align 1 dereferenceable(1) %ref.tmp) #12
  ret void

lpad:                                             ; preds = %entry
  %6 = landingpad { ptr, i32 }
          cleanup
  call void @_ZNSaIcED1Ev(ptr noundef nonnull align 1 dereferenceable(1) %ref.tmp) #12
  resume { ptr, i32 } %6
}